target datalayout = "e-m:e-p270:32:32-p271:32:32-p272:64:64-i64:64-i128:128-f80:128-n8:16:32:64-S128"
target triple = "x86_64-pc-linux-gnu"

%struct.Mop_Man_t_ = type { i32, i32, i32, i32, ptr, ptr, ptr, ptr }
%struct.Vec_Wrd_t_ = type { i32, i32, ptr }
%struct.Vec_Int_t_ = type { i32, i32, ptr }

; Function Attrs: inlinehint nounwind uwtable
define internal i32 @Abc_TtCountOnes(i64 noundef %0) #3 {
  %2 = alloca i64, align 8
  store i64 %0, ptr %2, align 8, !tbaa !48
  %3 = load i64, ptr %2, align 8, !tbaa !48
  %4 = load i64, ptr %2, align 8, !tbaa !48
  %5 = lshr i64 %4, 1
  %6 = and i64 %5, 6148914691236517205
  %7 = sub i64 %3, %6
  store i64 %7, ptr %2, align 8, !tbaa !48
  %8 = load i64, ptr %2, align 8, !tbaa !48
  %9 = and i64 %8, 3689348814741910323
  %10 = load i64, ptr %2, align 8, !tbaa !48
  %11 = lshr i64 %10, 2
  %12 = and i64 %11, 3689348814741910323
  %13 = add i64 %9, %12
  store i64 %13, ptr %2, align 8, !tbaa !48
  %14 = load i64, ptr %2, align 8, !tbaa !48
  %15 = load i64, ptr %2, align 8, !tbaa !48
  %16 = lshr i64 %15, 4
  %17 = add i64 %14, %16
  %18 = and i64 %17, 1085102592571150095
  store i64 %18, ptr %2, align 8, !tbaa !48
  %19 = load i64, ptr %2, align 8, !tbaa !48
  %20 = load i64, ptr %2, align 8, !tbaa !48
  %21 = lshr i64 %20, 8
  %22 = add i64 %19, %21
  store i64 %22, ptr %2, align 8, !tbaa !48
  %23 = load i64, ptr %2, align 8, !tbaa !48
  %24 = load i64, ptr %2, align 8, !tbaa !48
  %25 = lshr i64 %24, 16
  %26 = add i64 %23, %25
  store i64 %26, ptr %2, align 8, !tbaa !48
  %27 = load i64, ptr %2, align 8, !tbaa !48
  %28 = load i64, ptr %2, align 8, !tbaa !48
  %29 = lshr i64 %28, 32
  %30 = add i64 %27, %29
  store i64 %30, ptr %2, align 8, !tbaa !48
  %31 = load i64, ptr %2, align 8, !tbaa !48
  %32 = and i64 %31, 255
  %33 = trunc i64 %32 to i32
  ret i32 %33
}

; Function Attrs: inlinehint nounwind uwtable
define internal ptr @Vec_WrdEntryP(ptr noundef %0, i32 noundef %1) #3 {
  %3 = alloca ptr, align 8
  %4 = alloca i32, align 4
  store ptr %0, ptr %3, align 8, !tbaa !21
  store i32 %1, ptr %4, align 4, !tbaa !3
  %5 = load ptr, ptr %3, align 8, !tbaa !21
  %6 = getelementptr inbounds nuw %struct.Vec_Wrd_t_, ptr %5, i32 0, i32 2
  %7 = load ptr, ptr %6, align 8, !tbaa !25
  %8 = load i32, ptr %4, align 4, !tbaa !3
  %9 = sext i32 %8 to i64
  %10 = getelementptr inbounds i64, ptr %7, i64 %9
  ret ptr %10
}

; Function Attrs: inlinehint nounwind uwtable
define internal ptr @Vec_IntAlloc(i32 noundef %0) #3 {
  %2 = alloca i32, align 4
  %3 = alloca ptr, align 8
  store i32 %0, ptr %2, align 4, !tbaa !3
  call void @llvm.lifetime.start.p0(i64 8, ptr %3) #13
  %4 = call noalias ptr @malloc(i64 noundef 16) #15
  store ptr %4, ptr %3, align 8, !tbaa !26
  %5 = load i32, ptr %2, align 4, !tbaa !3
  %6 = icmp sgt i32 %5, 0
  br i1 %6, label %7, label %11

7:                                                ; preds = %1
  %8 = load i32, ptr %2, align 4, !tbaa !3
  %9 = icmp slt i32 %8, 16
  br i1 %9, label %10, label %11

10:                                               ; preds = %7
  store i32 16, ptr %2, align 4, !tbaa !3
  br label %11

11:                                               ; preds = %10, %7, %1
  %12 = load ptr, ptr %3, align 8, !tbaa !26
  %13 = getelementptr inbounds nuw %struct.Vec_Int_t_, ptr %12, i32 0, i32 1
  store i32 0, ptr %13, align 4, !tbaa !27
  %14 = load i32, ptr %2, align 4, !tbaa !3
  %15 = load ptr, ptr %3, align 8, !tbaa !26
  %16 = getelementptr inbounds nuw %struct.Vec_Int_t_, ptr %15, i32 0, i32 0
  store i32 %14, ptr %16, align 8, !tbaa !30
  %17 = load ptr, ptr %3, align 8, !tbaa !26
  %18 = getelementptr inbounds nuw %struct.Vec_Int_t_, ptr %17, i32 0, i32 0
  %19 = load i32, ptr %18, align 8, !tbaa !30
  %20 = icmp ne i32 %19, 0
  br i1 %20, label %21, label %28

21:                                               ; preds = %11
  %22 = load ptr, ptr %3, align 8, !tbaa !26
  %23 = getelementptr inbounds nuw %struct.Vec_Int_t_, ptr %22, i32 0, i32 0
  %24 = load i32, ptr %23, align 8, !tbaa !30
  %25 = sext i32 %24 to i64
  %26 = mul i64 4, %25
  %27 = call noalias ptr @malloc(i64 noundef %26) #15
  br label %29

28:                                               ; preds = %11
  br label %29

29:                                               ; preds = %28, %21
  %30 = phi ptr [ %27, %21 ], [ null, %28 ]
  %31 = load ptr, ptr %3, align 8, !tbaa !26
  %32 = getelementptr inbounds nuw %struct.Vec_Int_t_, ptr %31, i32 0, i32 2
  store ptr %30, ptr %32, align 8, !tbaa !31
  %33 = load ptr, ptr %3, align 8, !tbaa !26
  call void @llvm.lifetime.end.p0(i64 8, ptr %3) #13
  ret ptr %33
}

; Function Attrs: inlinehint nounwind uwtable
define internal i32 @Vec_IntAddToEntry(ptr noundef %0, i32 noundef %1, i32 noundef %2) #3 {
  %4 = alloca ptr, align 8
  %5 = alloca i32, align 4
  %6 = alloca i32, align 4
  store ptr %0, ptr %4, align 8, !tbaa !26
  store i32 %1, ptr %5, align 4, !tbaa !3
  store i32 %2, ptr %6, align 4, !tbaa !3
  %7 = load i32, ptr %6, align 4, !tbaa !3
  %8 = load ptr, ptr %4, align 8, !tbaa !26
  %9 = getelementptr inbounds nuw %struct.Vec_Int_t_, ptr %8, i32 0, i32 2
  %10 = load ptr, ptr %9, align 8, !tbaa !31
  %11 = load i32, ptr %5, align 4, !tbaa !3
  %12 = sext i32 %11 to i64
  %13 = getelementptr inbounds i32, ptr %10, i64 %12
  %14 = load i32, ptr %13, align 4, !tbaa !3
  %15 = add nsw i32 %14, %7
  store i32 %15, ptr %13, align 4, !tbaa !3
  ret i32 %15
}

; Function Attrs: inlinehint nounwind uwtable
define internal i32 @Abc_TtGetQua(ptr noundef %0, i32 noundef %1) #3 {
  %3 = alloca ptr, align 8
  %4 = alloca i32, align 4
  store ptr %0, ptr %3, align 8, !tbaa !42
  store i32 %1, ptr %4, align 4, !tbaa !3
  %5 = load ptr, ptr %3, align 8, !tbaa !42
  %6 = load i32, ptr %4, align 4, !tbaa !3
  %7 = ashr i32 %6, 5
  %8 = sext i32 %7 to i64
  %9 = getelementptr inbounds i64, ptr %5, i64 %8
  %10 = load i64, ptr %9, align 8, !tbaa !48
  %11 = load i32, ptr %4, align 4, !tbaa !3
  %12 = shl i32 %11, 1
  %13 = and i32 %12, 63
  %14 = zext i32 %13 to i64
  %15 = lshr i64 %10, %14
  %16 = trunc i64 %15 to i32
  %17 = and i32 %16, 3
  ret i32 %17
}

; Function Attrs: inlinehint nounwind uwtable
define internal i32 @Mop_ManCountOnes(ptr noundef %0, i32 noundef %1) #3 {
  %3 = alloca ptr, align 8
  %4 = alloca i32, align 4
  %5 = alloca i32, align 4
  %6 = alloca i32, align 4
  store ptr %0, ptr %3, align 8, !tbaa !42
  store i32 %1, ptr %4, align 4, !tbaa !3
  call void @llvm.lifetime.start.p0(i64 4, ptr %5) #13
  call void @llvm.lifetime.start.p0(i64 4, ptr %6) #13
  store i32 0, ptr %6, align 4, !tbaa !3
  store i32 0, ptr %5, align 4, !tbaa !3
  br label %7

7:                                                ; preds = %20, %2
  %8 = load i32, ptr %5, align 4, !tbaa !3
  %9 = load i32, ptr %4, align 4, !tbaa !3
  %10 = icmp slt i32 %8, %9
  br i1 %10, label %11, label %23

11:                                               ; preds = %7
  %12 = load ptr, ptr %3, align 8, !tbaa !42
  %13 = load i32, ptr %5, align 4, !tbaa !3
  %14 = sext i32 %13 to i64
  %15 = getelementptr inbounds i64, ptr %12, i64 %14
  %16 = load i64, ptr %15, align 8, !tbaa !48
  %17 = call i32 @Abc_TtCountOnes(i64 noundef %16)
  %18 = load i32, ptr %6, align 4, !tbaa !3
  %19 = add nsw i32 %18, %17
  store i32 %19, ptr %6, align 4, !tbaa !3
  br label %20

20:                                               ; preds = %11
  %21 = load i32, ptr %5, align 4, !tbaa !3
  %22 = add nsw i32 %21, 1
  store i32 %22, ptr %5, align 4, !tbaa !3
  br label %7, !llvm.loop !55

23:                                               ; preds = %7
  %24 = load i32, ptr %6, align 4, !tbaa !3
  call void @llvm.lifetime.end.p0(i64 4, ptr %6) #13
  call void @llvm.lifetime.end.p0(i64 4, ptr %5) #13
  ret i32 %24
}

; Function Attrs: inlinehint nounwind uwtable
define internal ptr @Mop_ManCubeOut(ptr noundef %0, i32 noundef %1) #3 {
  %3 = alloca ptr, align 8
  %4 = alloca i32, align 4
  store ptr %0, ptr %3, align 8, !tbaa !7
  store i32 %1, ptr %4, align 4, !tbaa !3
  %5 = load ptr, ptr %3, align 8, !tbaa !7
  %6 = getelementptr inbounds nuw %struct.Mop_Man_t_, ptr %5, i32 0, i32 5
  %7 = load ptr, ptr %6, align 8, !tbaa !18
  %8 = load ptr, ptr %3, align 8, !tbaa !7
  %9 = getelementptr inbounds nuw %struct.Mop_Man_t_, ptr %8, i32 0, i32 3
  %10 = load i32, ptr %9, align 4, !tbaa !16
  %11 = load i32, ptr %4, align 4, !tbaa !3
  %12 = mul nsw i32 %10, %11
  %13 = call ptr @Vec_WrdEntryP(ptr noundef %7, i32 noundef %12)
  ret ptr %13
}

; Function Attrs: inlinehint nounwind uwtable
define internal ptr @Mop_ManCubeIn(ptr noundef %0, i32 noundef %1) #3 {
  %3 = alloca ptr, align 8
  %4 = alloca i32, align 4
  store ptr %0, ptr %3, align 8, !tbaa !7
  store i32 %1, ptr %4, align 4, !tbaa !3
  %5 = load ptr, ptr %3, align 8, !tbaa !7
  %6 = getelementptr inbounds nuw %struct.Mop_Man_t_, ptr %5, i32 0, i32 4
  %7 = load ptr, ptr %6, align 8, !tbaa !17
  %8 = load ptr, ptr %3, align 8, !tbaa !7
  %9 = getelementptr inbounds nuw %struct.Mop_Man_t_, ptr %8, i32 0, i32 2
  %10 = load i32, ptr %9, align 8, !tbaa !15
  %11 = load i32, ptr %4, align 4, !tbaa !3
  %12 = mul nsw i32 %10, %11
  %13 = call ptr @Vec_WrdEntryP(ptr noundef %7, i32 noundef %12)
  ret ptr %13
}

; Function Attrs: inlinehint nounwind uwtable
define internal i32 @Vec_IntEntry(ptr noundef %0, i32 noundef %1) #3 {
  %3 = alloca ptr, align 8
  %4 = alloca i32, align 4
  store ptr %0, ptr %3, align 8, !tbaa !26
  store i32 %1, ptr %4, align 4, !tbaa !3
  %5 = load ptr, ptr %3, align 8, !tbaa !26
  %6 = getelementptr inbounds nuw %struct.Vec_Int_t_, ptr %5, i32 0, i32 2
  %7 = load ptr, ptr %6, align 8, !tbaa !31
  %8 = load i32, ptr %4, align 4, !tbaa !3
  %9 = sext i32 %8 to i64
  %10 = getelementptr inbounds i32, ptr %7, i64 %9
  %11 = load i32, ptr %10, align 4, !tbaa !3
  ret i32 %11
}

; Function Attrs: inlinehint nounwind uwtable
define internal i32 @Vec_IntSize(ptr noundef %0) #3 {
  %2 = alloca ptr, align 8
  store ptr %0, ptr %2, align 8, !tbaa !26
  %3 = load ptr, ptr %2, align 8, !tbaa !26
  %4 = getelementptr inbounds nuw %struct.Vec_Int_t_, ptr %3, i32 0, i32 1
  %5 = load i32, ptr %4, align 4, !tbaa !27
  ret i32 %5
}

; Function Attrs: inlinehint nounwind uwtable
define internal ptr @Vec_IntStart(i32 noundef %0) #3 {
  %2 = alloca i32, align 4
  %3 = alloca ptr, align 8
  store i32 %0, ptr %2, align 4, !tbaa !3
  call void @llvm.lifetime.start.p0(i64 8, ptr %3) #13
  %4 = load i32, ptr %2, align 4, !tbaa !3
  %5 = call ptr @Vec_IntAlloc(i32 noundef %4)
  store ptr %5, ptr %3, align 8, !tbaa !26
  %6 = load i32, ptr %2, align 4, !tbaa !3
  %7 = load ptr, ptr %3, align 8, !tbaa !26
  %8 = getelementptr inbounds nuw %struct.Vec_Int_t_, ptr %7, i32 0, i32 1
  store i32 %6, ptr %8, align 4, !tbaa !27
  %9 = load ptr, ptr %3, align 8, !tbaa !26
  %10 = getelementptr inbounds nuw %struct.Vec_Int_t_, ptr %9, i32 0, i32 2
  %11 = load ptr, ptr %10, align 8, !tbaa !31
  %12 = icmp ne ptr %11, null
  br i1 %12, label %13, label %20

13:                                               ; preds = %1
  %14 = load ptr, ptr %3, align 8, !tbaa !26
  %15 = getelementptr inbounds nuw %struct.Vec_Int_t_, ptr %14, i32 0, i32 2
  %16 = load ptr, ptr %15, align 8, !tbaa !31
  %17 = load i32, ptr %2, align 4, !tbaa !3
  %18 = sext i32 %17 to i64
  %19 = mul i64 4, %18
  call void @llvm.memset.p0.i64(ptr align 4 %16, i8 0, i64 %19, i1 false)
  br label %20

20:                                               ; preds = %13, %1
  %21 = load ptr, ptr %3, align 8, !tbaa !26
  call void @llvm.lifetime.end.p0(i64 8, ptr %3) #13
  ret ptr %21
}

; Function Attrs: nounwind uwtable
define ptr @Mop_ManCollectStats(ptr noundef %0) #0 {
  %2 = alloca ptr, align 8
  %3 = alloca i32, align 4
  %4 = alloca i32, align 4
  %5 = alloca i32, align 4
  %6 = alloca i32, align 4
  %7 = alloca ptr, align 8
  %8 = alloca ptr, align 8
  %9 = alloca i32, align 4
  store ptr %0, ptr %2, align 8, !tbaa !7
  call void @llvm.lifetime.start.p0(i64 4, ptr %3) #13
  call void @llvm.lifetime.start.p0(i64 4, ptr %4) #13
  call void @llvm.lifetime.start.p0(i64 4, ptr %5) #13
  call void @llvm.lifetime.start.p0(i64 4, ptr %6) #13
  %10 = load ptr, ptr %2, align 8, !tbaa !7
  %11 = getelementptr inbounds nuw %struct.Mop_Man_t_, ptr %10, i32 0, i32 2
  %12 = load i32, ptr %11, align 8, !tbaa !15
  %13 = mul nsw i32 32, %12
  store i32 %13, ptr %6, align 4, !tbaa !3
  call void @llvm.lifetime.start.p0(i64 8, ptr %7) #13
  %14 = load i32, ptr %6, align 4, !tbaa !3
  %15 = call ptr @Vec_IntStart(i32 noundef %14)
  store ptr %15, ptr %7, align 8, !tbaa !26
  store i32 0, ptr %3, align 4, !tbaa !3
  br label %16

16:                                               ; preds = %61, %1
  %17 = load i32, ptr %3, align 4, !tbaa !3
  %18 = load ptr, ptr %2, align 8, !tbaa !7
  %19 = getelementptr inbounds nuw %struct.Mop_Man_t_, ptr %18, i32 0, i32 6
  %20 = load ptr, ptr %19, align 8, !tbaa !19
  %21 = call i32 @Vec_IntSize(ptr noundef %20)
  %22 = icmp slt i32 %17, %21
  br i1 %22, label %23, label %29

23:                                               ; preds = %16
  %24 = load ptr, ptr %2, align 8, !tbaa !7
  %25 = getelementptr inbounds nuw %struct.Mop_Man_t_, ptr %24, i32 0, i32 6
  %26 = load ptr, ptr %25, align 8, !tbaa !19
  %27 = load i32, ptr %3, align 4, !tbaa !3
  %28 = call i32 @Vec_IntEntry(ptr noundef %26, i32 noundef %27)
  store i32 %28, ptr %5, align 4, !tbaa !3
  br label %29

29:                                               ; preds = %23, %16
  %30 = phi i1 [ false, %16 ], [ true, %23 ]
  br i1 %30, label %31, label %64

31:                                               ; preds = %29
  call void @llvm.lifetime.start.p0(i64 8, ptr %8) #13
  %32 = load ptr, ptr %2, align 8, !tbaa !7
  %33 = load i32, ptr %5, align 4, !tbaa !3
  %34 = call ptr @Mop_ManCubeIn(ptr noundef %32, i32 noundef %33)
  store ptr %34, ptr %8, align 8, !tbaa !42
  call void @llvm.lifetime.start.p0(i64 4, ptr %9) #13
  %35 = load ptr, ptr %2, align 8, !tbaa !7
  %36 = load i32, ptr %5, align 4, !tbaa !3
  %37 = call ptr @Mop_ManCubeOut(ptr noundef %35, i32 noundef %36)
  %38 = load ptr, ptr %2, align 8, !tbaa !7
  %39 = getelementptr inbounds nuw %struct.Mop_Man_t_, ptr %38, i32 0, i32 3
  %40 = load i32, ptr %39, align 4, !tbaa !16
  %41 = call i32 @Mop_ManCountOnes(ptr noundef %37, i32 noundef %40)
  store i32 %41, ptr %9, align 4, !tbaa !3
  store i32 0, ptr %4, align 4, !tbaa !3
  br label %42

42:                                               ; preds = %57, %31
  %43 = load i32, ptr %4, align 4, !tbaa !3
  %44 = load i32, ptr %6, align 4, !tbaa !3
  %45 = icmp slt i32 %43, %44
  br i1 %45, label %46, label %60

46:                                               ; preds = %42
  %47 = load ptr, ptr %8, align 8, !tbaa !42
  %48 = load i32, ptr %4, align 4, !tbaa !3
  %49 = call i32 @Abc_TtGetQua(ptr noundef %47, i32 noundef %48)
  %50 = icmp ne i32 %49, 0
  br i1 %50, label %51, label %56

51:                                               ; preds = %46
  %52 = load ptr, ptr %7, align 8, !tbaa !26
  %53 = load i32, ptr %4, align 4, !tbaa !3
  %54 = load i32, ptr %9, align 4, !tbaa !3
  %55 = call i32 @Vec_IntAddToEntry(ptr noundef %52, i32 noundef %53, i32 noundef %54)
  br label %56

56:                                               ; preds = %51, %46
  br label %57

57:                                               ; preds = %56
  %58 = load i32, ptr %4, align 4, !tbaa !3
  %59 = add nsw i32 %58, 1
  store i32 %59, ptr %4, align 4, !tbaa !3
  br label %42, !llvm.loop !53

60:                                               ; preds = %42
  call void @llvm.lifetime.end.p0(i64 4, ptr %9) #13
  call void @llvm.lifetime.end.p0(i64 8, ptr %8) #13
  br label %61

61:                                               ; preds = %60
  %62 = load i32, ptr %3, align 4, !tbaa !3
  %63 = add nsw i32 %62, 1
  store i32 %63, ptr %3, align 4, !tbaa !3
  br label %16, !llvm.loop !54

64:                                               ; preds = %29
  %65 = load ptr, ptr %7, align 8, !tbaa !26
  call void @llvm.lifetime.end.p0(i64 8, ptr %7) #13
  call void @llvm.lifetime.end.p0(i64 4, ptr %6) #13
  call void @llvm.lifetime.end.p0(i64 4, ptr %5) #13
  call void @llvm.lifetime.end.p0(i64 4, ptr %4) #13
  call void @llvm.lifetime.end.p0(i64 4, ptr %3) #13
  ret ptr %65
}