; Function Attrs: nofree nounwind uwtable
define noalias noundef ptr @Mop_ManCollectStats(ptr noundef readonly captures(none) %0) local_unnamed_addr #9 {
  %2 = getelementptr inbounds nuw i8, ptr %0, i64 8
  %3 = load i32, ptr %2, align 8, !tbaa !12
  %4 = shl i32 %3, 5
  %5 = tail call noalias dereferenceable_or_null(16) ptr @malloc(i64 noundef 16) #22
  %6 = getelementptr inbounds nuw i8, ptr %5, i64 4
  store i32 %4, ptr %5, align 8, !tbaa !24
  %.not.i.i = icmp eq i32 %3, 0
  br i1 %.not.i.i, label %Vec_IntStart.exit, label %Vec_IntAlloc.exit.i

Vec_IntAlloc.exit.i:                              ; preds = %1
  %7 = sext i32 %4 to i64
  %8 = shl nsw i64 %7, 2
  %calloc = tail call ptr @calloc(i64 1, i64 %8)
  br label %Vec_IntStart.exit

Vec_IntStart.exit:                                ; preds = %1, %Vec_IntAlloc.exit.i
  %calloc.sink = phi ptr [ %calloc, %Vec_IntAlloc.exit.i ], [ null, %1 ]
  %9 = getelementptr inbounds nuw i8, ptr %5, i64 8
  store ptr %calloc.sink, ptr %9, align 8, !tbaa !25
  store i32 %4, ptr %6, align 4, !tbaa !21
  %10 = getelementptr inbounds nuw i8, ptr %0, i64 32
  %11 = load ptr, ptr %10, align 8, !tbaa !26
  %12 = getelementptr i8, ptr %11, i64 4
  %.val2428 = load i32, ptr %12, align 4, !tbaa !21
  %13 = icmp sgt i32 %.val2428, 0
  br i1 %13, label %.lr.ph30, label %.critedge

.lr.ph30:                                         ; preds = %Vec_IntStart.exit
  %14 = getelementptr i8, ptr %11, i64 8
  %.val25 = load ptr, ptr %14, align 8, !tbaa !25
  %15 = getelementptr i8, ptr %0, i64 16
  %.val21 = load ptr, ptr %15, align 8, !tbaa !19
  %16 = getelementptr i8, ptr %.val21, i64 8
  %.val21.val = load ptr, ptr %16, align 8, !tbaa !17
  %17 = getelementptr i8, ptr %0, i64 24
  %.val23 = load ptr, ptr %17, align 8, !tbaa !20
  %18 = getelementptr i8, ptr %.val23, i64 8
  %.val23.val = load ptr, ptr %18, align 8, !tbaa !17
  %19 = icmp sgt i32 %3, 0
  br i1 %19, label %.lr.ph30.split.us.preheader, label %.critedge

.lr.ph30.split.us.preheader:                      ; preds = %.lr.ph30
  %20 = getelementptr i8, ptr %0, i64 12
  %smax = tail call i32 @llvm.smax.i32(i32 %4, i32 1)
  %.val.us = load i32, ptr %2, align 8, !tbaa !12
  %.val22.us = load i32, ptr %20, align 4, !tbaa !13
  %21 = icmp sgt i32 %.val22.us, 0
  %wide.trip.count.i.us = zext nneg i32 %.val22.us to i64
  %wide.trip.count = zext nneg i32 %smax to i64
  br label %.lr.ph30.split.us

.lr.ph30.split.us:                                ; preds = %.lr.ph30.split.us.preheader, %._crit_edge.us
  %indvars.iv43 = phi i64 [ 0, %.lr.ph30.split.us.preheader ], [ %indvars.iv.next44, %._crit_edge.us ]
  %22 = getelementptr inbounds nuw i32, ptr %.val25, i64 %indvars.iv43
  %23 = load i32, ptr %22, align 4, !tbaa !28
  %24 = mul nsw i32 %.val.us, %23
  %25 = sext i32 %24 to i64
  %26 = getelementptr inbounds i64, ptr %.val21.val, i64 %25
  %27 = mul nsw i32 %.val22.us, %23
  %28 = sext i32 %27 to i64
  %29 = getelementptr inbounds i64, ptr %.val23.val, i64 %28
  br i1 %21, label %.lr.ph.i.us, label %Mop_ManCountOnes.exit.us

.lr.ph.i.us:                                      ; preds = %.lr.ph30.split.us, %.lr.ph.i.us
  %indvars.iv.i.us = phi i64 [ %indvars.iv.next.i.us, %.lr.ph.i.us ], [ 0, %.lr.ph30.split.us ]
  %.08.i.us = phi i32 [ %50, %.lr.ph.i.us ], [ 0, %.lr.ph30.split.us ]
  %30 = getelementptr inbounds nuw i64, ptr %29, i64 %indvars.iv.i.us
  %31 = load i64, ptr %30, align 8, !tbaa !39
  %32 = lshr i64 %31, 1
  %33 = and i64 %32, 6148914691236517205
  %34 = sub i64 %31, %33
  %35 = and i64 %34, 3689348814741910323
  %36 = lshr i64 %34, 2
  %37 = and i64 %36, 3689348814741910323
  %38 = add nuw nsw i64 %37, %35
  %39 = lshr i64 %38, 4
  %40 = add nuw nsw i64 %39, %38
  %41 = and i64 %40, 1085102592571150095
  %42 = lshr i64 %41, 8
  %43 = add nuw nsw i64 %42, %41
  %44 = lshr i64 %43, 16
  %45 = add nuw nsw i64 %44, %43
  %46 = lshr i64 %45, 32
  %47 = add nuw nsw i64 %46, %45
  %48 = trunc i64 %47 to i32
  %49 = and i32 %48, 255
  %50 = add nuw nsw i32 %49, %.08.i.us
  %indvars.iv.next.i.us = add nuw nsw i64 %indvars.iv.i.us, 1
  %exitcond.not.i.us = icmp eq i64 %indvars.iv.next.i.us, %wide.trip.count.i.us
  br i1 %exitcond.not.i.us, label %Mop_ManCountOnes.exit.us, label %.lr.ph.i.us, !llvm.loop !49

Mop_ManCountOnes.exit.us:                         ; preds = %.lr.ph.i.us, %.lr.ph30.split.us
  %.0.lcssa.i.us = phi i32 [ 0, %.lr.ph30.split.us ], [ %50, %.lr.ph.i.us ]
  br label %51

51:                                               ; preds = %Mop_ManCountOnes.exit.us, %64
  %indvars.iv = phi i64 [ 0, %Mop_ManCountOnes.exit.us ], [ %indvars.iv.next, %64 ]
  %52 = lshr i64 %indvars.iv, 5
  %53 = and i64 %52, 134217727
  %54 = getelementptr inbounds nuw i64, ptr %26, i64 %53
  %55 = load i64, ptr %54, align 8, !tbaa !39
  %56 = shl nuw i64 %indvars.iv, 1
  %57 = and i64 %56, 62
  %58 = shl nuw i64 3, %57
  %59 = and i64 %55, %58
  %.not.us = icmp eq i64 %59, 0
  br i1 %.not.us, label %64, label %60

60:                                               ; preds = %51
  %61 = getelementptr inbounds nuw i32, ptr %calloc.sink, i64 %indvars.iv
  %62 = load i32, ptr %61, align 4, !tbaa !28
  %63 = add nsw i32 %62, %.0.lcssa.i.us
  store i32 %63, ptr %61, align 4, !tbaa !28
  br label %64

64:                                               ; preds = %60, %51
  %indvars.iv.next = add nuw nsw i64 %indvars.iv, 1
  %exitcond.not = icmp eq i64 %indvars.iv.next, %wide.trip.count
  br i1 %exitcond.not, label %._crit_edge.us, label %51, !llvm.loop !50

._crit_edge.us:                                   ; preds = %64
  %indvars.iv.next44 = add nuw nsw i64 %indvars.iv43, 1
  %.val24.us = load i32, ptr %12, align 4, !tbaa !21
  %65 = sext i32 %.val24.us to i64
  %66 = icmp slt i64 %indvars.iv.next44, %65
  br i1 %66, label %.lr.ph30.split.us, label %.critedge, !llvm.loop !51

.critedge:                                        ; preds = %._crit_edge.us, %.lr.ph30, %Vec_IntStart.exit
  ret ptr %5
}